; Function Attrs: mustprogress nofree norecurse nosync nounwind memory(read, argmem: readwrite, inaccessiblemem: none) uwtable
define internal fastcc noundef zeroext i1 @_ZN4absl18debugging_internalL14ParseLongTokenEPNS0_5StateEPKc(ptr noundef captures(none) %0) unnamed_addr #8 personality ptr @__gxx_personality_v0 {
  %2 = getelementptr inbounds nuw i8, ptr %0, i64 20
  %3 = load i32, ptr %2, align 4, !tbaa !17
  %4 = add nsw i32 %3, 1
  store i32 %4, ptr %2, align 4, !tbaa !17
  %5 = getelementptr inbounds nuw i8, ptr %0, i64 24
  %6 = load i32, ptr %5, align 8, !tbaa !15
  %7 = add nsw i32 %6, 1
  store i32 %7, ptr %5, align 8, !tbaa !15
  %8 = icmp sgt i32 %3, 255
  %9 = icmp sgt i32 %6, 131071
  %or.cond = select i1 %8, i1 true, i1 %9
  br i1 %or.cond, label %_ZNK4absl18debugging_internal12_GLOBAL__N_115ComplexityGuard12IsTooComplexEv.exit.thread, label %.preheader

.preheader:                                       ; preds = %1
  %.val14 = load ptr, ptr %0, align 8, !tbaa !7
  %10 = getelementptr i8, ptr %0, i64 28
  %.val15 = load i32, ptr %10, align 4, !tbaa !16
  %11 = sext i32 %.val15 to i64
  %12 = getelementptr inbounds i8, ptr %.val14, i64 %11
  br label %13

13:                                               ; preds = %.preheader, %17
  %indvars.iv = phi i64 [ 0, %.preheader ], [ %indvars.iv.next, %17 ]
  %14 = phi i8 [ 95, %.preheader ], [ %19, %17 ]
  %15 = getelementptr inbounds nuw i8, ptr %12, i64 %indvars.iv
  %16 = load i8, ptr %15, align 1, !tbaa !4
  %.not12 = icmp eq i8 %16, %14
  br i1 %.not12, label %17, label %_ZNK4absl18debugging_internal12_GLOBAL__N_115ComplexityGuard12IsTooComplexEv.exit.thread

17:                                               ; preds = %13
  %indvars.iv.next = add nuw nsw i64 %indvars.iv, 1
  %18 = getelementptr inbounds nuw i8, ptr @.str.50, i64 %indvars.iv.next
  %19 = load i8, ptr %18, align 1, !tbaa !4
  %exitcond = icmp eq i64 %indvars.iv.next, 11
  br i1 %exitcond, label %20, label %13, !llvm.loop !54

20:                                               ; preds = %17
  %21 = add nsw i32 %.val15, 11
  store i32 %21, ptr %10, align 4, !tbaa !16
  br label %_ZNK4absl18debugging_internal12_GLOBAL__N_115ComplexityGuard12IsTooComplexEv.exit.thread

_ZNK4absl18debugging_internal12_GLOBAL__N_115ComplexityGuard12IsTooComplexEv.exit.thread: ; preds = %13, %1, %20
  %.011 = phi i1 [ true, %20 ], [ false, %1 ], [ false, %13 ]
  store i32 %3, ptr %2, align 4, !tbaa !17
  ret i1 %.011
}